target datalayout = "e-m:e-p270:32:32-p271:32:32-p272:64:64-i64:64-i128:128-f80:128-n8:16:32:64-S128"
target triple = "x86_64-pc-linux-gnu"

%"class.std::error_code" = type { i32, ptr }
%"class.std::function" = type { %"class.std::_Function_base", ptr }
%"class.std::_Function_base" = type { %"union.std::_Any_data", ptr }
%"union.std::_Any_data" = type { %"union.std::_Nocopy_types" }
%"union.std::_Nocopy_types" = type { { i64, i64 } }
%"class.std::optional" = type { %"struct.std::_Optional_base" }
%"struct.std::_Optional_base" = type { %"struct.std::_Optional_payload" }
%"struct.std::_Optional_payload" = type { %"struct.std::_Optional_payload_base.base", [3 x i8] }
%"struct.std::_Optional_payload_base.base" = type <{ %"union.std::_Optional_payload_base<int>::_Storage", i8 }>
%"union.std::_Optional_payload_base<int>::_Storage" = type { i32 }
%class.anon.18 = type { ptr }
%"class.llvm::raw_fd_ostream" = type { %"class.llvm::raw_pwrite_stream", i32, i8, i8, i8, %"class.std::optional.12", ptr, %"class.std::error_code", i64 }
%"class.llvm::raw_pwrite_stream" = type { %"class.llvm::raw_ostream" }
%"class.llvm::raw_ostream" = type { ptr, i32, ptr, ptr, ptr, i8, i32 }
%"class.std::optional.12" = type { %"struct.std::_Optional_base.13" }
%"struct.std::_Optional_base.13" = type { %"struct.std::_Optional_payload.15" }
%"struct.std::_Optional_payload.15" = type { %"struct.std::_Optional_payload_base.16" }
%"struct.std::_Optional_payload_base.16" = type { %"union.std::_Optional_payload_base<bool>::_Storage", i8 }
%"union.std::_Optional_payload_base<bool>::_Storage" = type { %"struct.std::_Optional_payload_base<bool>::_Empty_byte" }
%"struct.std::_Optional_payload_base<bool>::_Empty_byte" = type { i8 }
%"struct.std::_Optional_payload_base" = type <{ %"union.std::_Optional_payload_base<int>::_Storage", i8, [3 x i8] }>

; Function Attrs: mustprogress nounwind uwtable
define linkonce_odr hidden void @_ZNSt22_Optional_payload_baseIiE8_StorageIiLb1EEC2Ev(ptr noundef nonnull align 4 dereferenceable(4) %0) unnamed_addr #0 comdat align 2 {
  %2 = alloca ptr, align 8
  store ptr %0, ptr %2, align 8
  ret void
}

; Function Attrs: mustprogress nounwind uwtable
define linkonce_odr hidden void @_ZNSt22_Optional_payload_baseIiEC2Ev(ptr noundef nonnull align 4 dereferenceable(5) %0) unnamed_addr #0 comdat align 2 {
  %2 = alloca ptr, align 8
  store ptr %0, ptr %2, align 8
  %3 = load ptr, ptr %2, align 8
  %4 = getelementptr inbounds nuw %"struct.std::_Optional_payload_base", ptr %3, i32 0, i32 0
  call void @_ZNSt22_Optional_payload_baseIiE8_StorageIiLb1EEC2Ev(ptr noundef nonnull align 4 dereferenceable(4) %4) #12
  %5 = getelementptr inbounds nuw %"struct.std::_Optional_payload_base", ptr %3, i32 0, i32 1
  store i8 0, ptr %5, align 4
  ret void
}

; Function Attrs: mustprogress nounwind uwtable
define linkonce_odr hidden noundef ptr @_ZNSt9_Any_data9_M_accessEv(ptr noundef nonnull align 8 dereferenceable(16) %0) #0 comdat align 2 {
  %2 = alloca ptr, align 8
  store ptr %0, ptr %2, align 8
  %3 = load ptr, ptr %2, align 8
  %4 = getelementptr inbounds [16 x i8], ptr %3, i64 0, i64 0
  ret ptr %4
}

; Function Attrs: mustprogress nounwind uwtable
define linkonce_odr hidden void @_ZNSt17_Optional_payloadIiLb1ELb1ELb1EEC2Ev(ptr noundef nonnull align 4 dereferenceable(5) %0) unnamed_addr #0 comdat align 2 {
  %2 = alloca ptr, align 8
  store ptr %0, ptr %2, align 8
  %3 = load ptr, ptr %2, align 8
  call void @_ZNSt22_Optional_payload_baseIiEC2Ev(ptr noundef nonnull align 4 dereferenceable(5) %3) #12
  ret void
}

; Function Attrs: mustprogress nounwind uwtable
define internal void @"_ZNSt14_Function_base13_Base_managerIZN4llvm17raw_socket_stream4readEPcmRKNSt6chrono8durationIlSt5ratioILl1ELl1000EEEEE3$_0E9_M_createIRSB_EEvRSt9_Any_dataOT_St17integral_constantIbLb1EE"(ptr noundef nonnull align 8 dereferenceable(16) %0, ptr noundef nonnull align 8 dereferenceable(8) %1) #0 align 2 {
  %3 = alloca ptr, align 8
  %4 = alloca ptr, align 8
  store ptr %0, ptr %3, align 8
  store ptr %1, ptr %4, align 8
  %5 = load ptr, ptr %3, align 8
  %6 = call noundef ptr @_ZNSt9_Any_data9_M_accessEv(ptr noundef nonnull align 8 dereferenceable(16) %5) #12
  %7 = load ptr, ptr %4, align 8
  call void @llvm.memcpy.p0.p0.i64(ptr align 8 %6, ptr align 8 %7, i64 8, i1 false)
  ret void
}

; Function Attrs: mustprogress nounwind uwtable
define linkonce_odr hidden void @_ZNSt14_Function_baseD2Ev(ptr noundef nonnull align 8 dereferenceable(24) %0) unnamed_addr #0 comdat align 2 {
  %2 = alloca ptr, align 8
  store ptr %0, ptr %2, align 8
  %3 = load ptr, ptr %2, align 8
  %4 = getelementptr inbounds nuw %"class.std::_Function_base", ptr %3, i32 0, i32 1
  %5 = load ptr, ptr %4, align 8
  %6 = icmp ne ptr %5, null
  br i1 %6, label %7, label %13

7:                                                ; preds = %1
  %8 = getelementptr inbounds nuw %"class.std::_Function_base", ptr %3, i32 0, i32 1
  %9 = load ptr, ptr %8, align 8
  %10 = getelementptr inbounds nuw %"class.std::_Function_base", ptr %3, i32 0, i32 0
  %11 = getelementptr inbounds nuw %"class.std::_Function_base", ptr %3, i32 0, i32 0
  %12 = call noundef zeroext i1 %9(ptr noundef nonnull align 8 dereferenceable(16) %10, ptr noundef nonnull align 8 dereferenceable(16) %11, i32 noundef 3)
  br label %13

13:                                               ; preds = %7, %1
  ret void
}

; Function Attrs: mustprogress nounwind uwtable
define linkonce_odr hidden void @_ZNSt14_Optional_baseIiLb1ELb1EEC2Ev(ptr noundef nonnull align 4 dereferenceable(8) %0) unnamed_addr #0 comdat align 2 {
  %2 = alloca ptr, align 8
  store ptr %0, ptr %2, align 8
  %3 = load ptr, ptr %2, align 8
  %4 = getelementptr inbounds nuw %"struct.std::_Optional_base", ptr %3, i32 0, i32 0
  call void @_ZNSt17_Optional_payloadIiLb1ELb1ELb1EEC2Ev(ptr noundef nonnull align 4 dereferenceable(5) %4) #12
  ret void
}

; Function Attrs: mustprogress nounwind uwtable
define internal void @"_ZNSt14_Function_base13_Base_managerIZN4llvm17raw_socket_stream4readEPcmRKNSt6chrono8durationIlSt5ratioILl1ELl1000EEEEE3$_0E15_M_init_functorIRSB_EEvRSt9_Any_dataOT_"(ptr noundef nonnull align 8 dereferenceable(16) %0, ptr noundef nonnull align 8 dereferenceable(8) %1) #0 align 2 {
  %3 = alloca ptr, align 8
  %4 = alloca ptr, align 8
  store ptr %0, ptr %3, align 8
  store ptr %1, ptr %4, align 8
  %5 = load ptr, ptr %3, align 8
  %6 = load ptr, ptr %4, align 8
  call void @"_ZNSt14_Function_base13_Base_managerIZN4llvm17raw_socket_stream4readEPcmRKNSt6chrono8durationIlSt5ratioILl1ELl1000EEEEE3$_0E9_M_createIRSB_EEvRSt9_Any_dataOT_St17integral_constantIbLb1EE"(ptr noundef nonnull align 8 dereferenceable(16) %5, ptr noundef nonnull align 8 dereferenceable(8) %6)
  ret void
}

; Function Attrs: mustprogress nounwind uwtable
define internal noundef zeroext i1 @"_ZNSt14_Function_base13_Base_managerIZN4llvm17raw_socket_stream4readEPcmRKNSt6chrono8durationIlSt5ratioILl1ELl1000EEEEE3$_0E21_M_not_empty_functionISB_EEbRKT_"(ptr noundef nonnull align 8 dereferenceable(8) %0) #0 align 2 {
  %2 = alloca ptr, align 8
  store ptr %0, ptr %2, align 8
  ret i1 true
}

; Function Attrs: mustprogress nounwind uwtable
define linkonce_odr hidden void @_ZNSt14_Function_baseC2Ev(ptr noundef nonnull align 8 dereferenceable(24) %0) unnamed_addr #0 comdat align 2 {
  %2 = alloca ptr, align 8
  store ptr %0, ptr %2, align 8
  %3 = load ptr, ptr %2, align 8
  %4 = getelementptr inbounds nuw %"class.std::_Function_base", ptr %3, i32 0, i32 0
  store ptr null, ptr %4, align 8
  %5 = getelementptr inbounds nuw %"class.std::_Function_base", ptr %3, i32 0, i32 1
  store ptr null, ptr %5, align 8
  ret void
}

; Function Attrs: mustprogress nounwind uwtable
define linkonce_odr hidden void @_ZN4llvm14raw_fd_ostream14error_detectedESt10error_code(ptr noundef nonnull align 8 dereferenceable(96) %0, i32 %1, ptr %2) #0 comdat align 2 {
  %4 = alloca %"class.std::error_code", align 8
  %5 = alloca ptr, align 8
  %6 = getelementptr inbounds nuw { i32, ptr }, ptr %4, i32 0, i32 0
  store i32 %1, ptr %6, align 8
  %7 = getelementptr inbounds nuw { i32, ptr }, ptr %4, i32 0, i32 1
  store ptr %2, ptr %7, align 8
  store ptr %0, ptr %5, align 8
  %8 = load ptr, ptr %5, align 8
  %9 = getelementptr inbounds nuw %"class.llvm::raw_fd_ostream", ptr %8, i32 0, i32 7
  call void @llvm.memcpy.p0.p0.i64(ptr align 8 %9, ptr align 8 %4, i64 16, i1 false)
  ret void
}

; Function Attrs: mustprogress nounwind uwtable
define linkonce_odr hidden noundef zeroext i1 @_ZNKSt10error_codecvbEv(ptr noundef nonnull align 8 dereferenceable(16) %0) #0 comdat align 2 {
  %2 = alloca ptr, align 8
  store ptr %0, ptr %2, align 8
  %3 = load ptr, ptr %2, align 8
  %4 = getelementptr inbounds nuw %"class.std::error_code", ptr %3, i32 0, i32 0
  %5 = load i32, ptr %4, align 8
  %6 = icmp ne i32 %5, 0
  ret i1 %6
}

; Function Attrs: mustprogress nounwind uwtable
define linkonce_odr hidden void @_ZNSt8functionIFivEED2Ev(ptr noundef nonnull align 8 dereferenceable(32) %0) unnamed_addr #0 comdat align 2 {
  %2 = alloca ptr, align 8
  store ptr %0, ptr %2, align 8
  %3 = load ptr, ptr %2, align 8
  call void @_ZNSt14_Function_baseD2Ev(ptr noundef nonnull align 8 dereferenceable(24) %3) #12
  ret void
}

; Function Attrs: mustprogress nounwind uwtable
define linkonce_odr hidden void @_ZNSt8optionalIiEC2ESt9nullopt_t(ptr noundef nonnull align 4 dereferenceable(8) %0) unnamed_addr #0 comdat align 2 {
  %2 = alloca ptr, align 8
  store ptr %0, ptr %2, align 8
  %3 = load ptr, ptr %2, align 8
  call void @_ZNSt14_Optional_baseIiLb1ELb1EEC2Ev(ptr noundef nonnull align 4 dereferenceable(8) %3) #12
  ret void
}

; Function Attrs: mustprogress nounwind uwtable
define internal void @"_ZNSt8functionIFivEEC2IRZN4llvm17raw_socket_stream4readEPcmRKNSt6chrono8durationIlSt5ratioILl1ELl1000EEEEE3$_0vEEOT_"(ptr noundef nonnull align 8 dereferenceable(32) %0, ptr noundef nonnull align 8 dereferenceable(8) %1) unnamed_addr #0 align 2 {
  %3 = alloca ptr, align 8
  %4 = alloca ptr, align 8
  store ptr %0, ptr %3, align 8
  store ptr %1, ptr %4, align 8
  %5 = load ptr, ptr %3, align 8
  %6 = getelementptr inbounds i8, ptr %5, i64 0
  call void @llvm.memset.p0.i64(ptr align 8 %6, i8 0, i64 24, i1 false)
  call void @_ZNSt14_Function_baseC2Ev(ptr noundef nonnull align 8 dereferenceable(24) %5) #12
  %7 = getelementptr inbounds nuw %"class.std::function", ptr %5, i32 0, i32 1
  store ptr null, ptr %7, align 8
  %8 = load ptr, ptr %4, align 8
  %9 = call noundef zeroext i1 @"_ZNSt14_Function_base13_Base_managerIZN4llvm17raw_socket_stream4readEPcmRKNSt6chrono8durationIlSt5ratioILl1ELl1000EEEEE3$_0E21_M_not_empty_functionISB_EEbRKT_"(ptr noundef nonnull align 8 dereferenceable(8) %8) #12
  br i1 %9, label %10, label %15

10:                                               ; preds = %2
  %11 = getelementptr inbounds nuw %"class.std::_Function_base", ptr %5, i32 0, i32 0
  %12 = load ptr, ptr %4, align 8
  call void @"_ZNSt14_Function_base13_Base_managerIZN4llvm17raw_socket_stream4readEPcmRKNSt6chrono8durationIlSt5ratioILl1ELl1000EEEEE3$_0E15_M_init_functorIRSB_EEvRSt9_Any_dataOT_"(ptr noundef nonnull align 8 dereferenceable(16) %11, ptr noundef nonnull align 8 dereferenceable(8) %12) #12
  %13 = getelementptr inbounds nuw %"class.std::function", ptr %5, i32 0, i32 1
  store ptr @"_ZNSt17_Function_handlerIFivEZN4llvm17raw_socket_stream4readEPcmRKNSt6chrono8durationIlSt5ratioILl1ELl1000EEEEE3$_0E9_M_invokeERKSt9_Any_data", ptr %13, align 8
  %14 = getelementptr inbounds nuw %"class.std::_Function_base", ptr %5, i32 0, i32 1
  store ptr @"_ZNSt17_Function_handlerIFivEZN4llvm17raw_socket_stream4readEPcmRKNSt6chrono8durationIlSt5ratioILl1ELl1000EEEEE3$_0E10_M_managerERSt9_Any_dataRKSD_St18_Manager_operation", ptr %14, align 8
  br label %15

15:                                               ; preds = %10, %2
  ret void
}

; Function Attrs: mustprogress nounwind uwtable
define dso_local noundef i64 @_ZN4llvm17raw_socket_stream4readEPcmRKNSt6chrono8durationIlSt5ratioILl1ELl1000EEEE(ptr noundef nonnull align 8 dereferenceable(96) %0, ptr noundef %1, i64 noundef %2, ptr noundef nonnull align 8 dereferenceable(8) %3) #0 align 2 {
  %5 = alloca i64, align 8
  %6 = alloca ptr, align 8
  %7 = alloca ptr, align 8
  %8 = alloca i64, align 8
  %9 = alloca ptr, align 8
  %10 = alloca %class.anon.18, align 8
  %11 = alloca %"class.std::error_code", align 8
  %12 = alloca %"class.std::function", align 8
  %13 = alloca %"class.std::optional", align 4
  %14 = alloca %"class.std::error_code", align 8
  store ptr %0, ptr %6, align 8
  store ptr %1, ptr %7, align 8
  store i64 %2, ptr %8, align 8
  store ptr %3, ptr %9, align 8
  %15 = load ptr, ptr %6, align 8
  %16 = getelementptr inbounds nuw %class.anon.18, ptr %10, i32 0, i32 0
  store ptr %15, ptr %16, align 8
  %17 = load ptr, ptr %9, align 8
  call void @"_ZNSt8functionIFivEEC2IRZN4llvm17raw_socket_stream4readEPcmRKNSt6chrono8durationIlSt5ratioILl1ELl1000EEEEE3$_0vEEOT_"(ptr noundef nonnull align 8 dereferenceable(32) %12, ptr noundef nonnull align 8 dereferenceable(8) %10) #12
  call void @_ZNSt8optionalIiEC2ESt9nullopt_t(ptr noundef nonnull align 4 dereferenceable(8) %13) #12
  %18 = call { i32, ptr } @_ZL13manageTimeoutRKNSt6chrono8durationIlSt5ratioILl1ELl1000EEEERKSt8functionIFivEERKSt8optionalIiE(ptr noundef nonnull align 8 dereferenceable(8) %17, ptr noundef nonnull align 8 dereferenceable(32) %12, ptr noundef nonnull align 4 dereferenceable(8) %13)
  %19 = getelementptr inbounds nuw { i32, ptr }, ptr %11, i32 0, i32 0
  %20 = extractvalue { i32, ptr } %18, 0
  store i32 %20, ptr %19, align 8
  %21 = getelementptr inbounds nuw { i32, ptr }, ptr %11, i32 0, i32 1
  %22 = extractvalue { i32, ptr } %18, 1
  store ptr %22, ptr %21, align 8
  call void @_ZNSt8functionIFivEED2Ev(ptr noundef nonnull align 8 dereferenceable(32) %12) #12
  %23 = call noundef zeroext i1 @_ZNKSt10error_codecvbEv(ptr noundef nonnull align 8 dereferenceable(16) %11) #12
  br i1 %23, label %24, label %29

24:                                               ; preds = %4
  call void @llvm.memcpy.p0.p0.i64(ptr align 8 %14, ptr align 8 %11, i64 16, i1 false)
  %25 = getelementptr inbounds nuw { i32, ptr }, ptr %14, i32 0, i32 0
  %26 = load i32, ptr %25, align 8
  %27 = getelementptr inbounds nuw { i32, ptr }, ptr %14, i32 0, i32 1
  %28 = load ptr, ptr %27, align 8
  call void @_ZN4llvm14raw_fd_ostream14error_detectedESt10error_code(ptr noundef nonnull align 8 dereferenceable(96) %15, i32 %26, ptr %28)
  store i64 -1, ptr %5, align 8
  br label %33

29:                                               ; preds = %4
  %30 = load ptr, ptr %7, align 8
  %31 = load i64, ptr %8, align 8
  %32 = call noundef i64 @_ZN4llvm13raw_fd_stream4readEPcm(ptr noundef nonnull align 8 dereferenceable(96) %15, ptr noundef %30, i64 noundef %31)
  store i64 %32, ptr %5, align 8
  br label %33

33:                                               ; preds = %29, %24
  %34 = load i64, ptr %5, align 8
  ret i64 %34
}