; Function Attrs: mustprogress nounwind uwtable
define dso_local noundef i64 @_ZN4llvm17raw_socket_stream4readEPcmRKNSt6chrono8durationIlSt5ratioILl1ELl1000EEEE(ptr noundef nonnull align 8 dereferenceable(96) %0, ptr noundef %1, i64 noundef %2, ptr nocapture noundef nonnull readonly align 8 dereferenceable(8) %3) local_unnamed_addr #0 align 2 {
  %5 = alloca %"class.std::function", align 8
  %6 = alloca %"class.std::optional", align 4
  %7 = getelementptr inbounds nuw i8, ptr %5, i64 16
  %8 = getelementptr inbounds nuw i8, ptr %5, i64 24
  %9 = getelementptr inbounds i8, ptr %5, i64 8
  store i64 0, ptr %9, align 8
  %10 = ptrtoint ptr %0 to i64
  store i64 %10, ptr %5, align 8
  store ptr @"_ZNSt17_Function_handlerIFivEZN4llvm17raw_socket_stream4readEPcmRKNSt6chrono8durationIlSt5ratioILl1ELl1000EEEEE3$_0E9_M_invokeERKSt9_Any_data", ptr %8, align 8
  store ptr @"_ZNSt17_Function_handlerIFivEZN4llvm17raw_socket_stream4readEPcmRKNSt6chrono8durationIlSt5ratioILl1ELl1000EEEEE3$_0E10_M_managerERSt9_Any_dataRKSD_St18_Manager_operation", ptr %7, align 8
  %11 = getelementptr inbounds nuw i8, ptr %6, i64 4
  store i8 0, ptr %11, align 4
  %12 = call fastcc { i32, ptr } @_ZL13manageTimeoutRKNSt6chrono8durationIlSt5ratioILl1ELl1000EEEERKSt8functionIFivEERKSt8optionalIiE(ptr noundef nonnull align 8 dereferenceable(8) %3, ptr noundef nonnull align 8 dereferenceable(32) %5, ptr noundef nonnull align 4 dereferenceable(8) %6)
  %13 = extractvalue { i32, ptr } %12, 0
  %14 = extractvalue { i32, ptr } %12, 1
  %15 = load ptr, ptr %7, align 8
  %.not.i.i = icmp eq ptr %15, null
  br i1 %.not.i.i, label %_ZNSt8functionIFivEED2Ev.exit, label %16

16:                                               ; preds = %4
  %17 = call noundef zeroext i1 %15(ptr noundef nonnull align 8 dereferenceable(16) %5, ptr noundef nonnull align 8 dereferenceable(16) %5, i32 noundef 3) #18
  br label %_ZNSt8functionIFivEED2Ev.exit

_ZNSt8functionIFivEED2Ev.exit:                    ; preds = %4, %16
  %.not = icmp eq i32 %13, 0
  br i1 %.not, label %20, label %18

18:                                               ; preds = %_ZNSt8functionIFivEED2Ev.exit
  %19 = getelementptr inbounds nuw i8, ptr %0, i64 72
  store i32 %13, ptr %19, align 8
  %.sroa.21.0..sroa_idx.i = getelementptr inbounds i8, ptr %0, i64 80
  store ptr %14, ptr %.sroa.21.0..sroa_idx.i, align 8
  br label %22

20:                                               ; preds = %_ZNSt8functionIFivEED2Ev.exit
  %21 = call noundef i64 @_ZN4llvm13raw_fd_stream4readEPcm(ptr noundef nonnull align 8 dereferenceable(96) %0, ptr noundef %1, i64 noundef %2) #18
  br label %22

22:                                               ; preds = %20, %18
  %.0 = phi i64 [ -1, %18 ], [ %21, %20 ]
  ret i64 %.0
}